Certificate:
    Data:
        Version: 3 (0x2)
        Serial Number: 2 (0x2)
    Signature Algorithm: md5WithRSAEncryption
        Issuer: C=PL, ST=mazowieckie, L=Warszawa, O=PW, OU=WEiTI, CN=Rafa\xC5\x82 Okuniewski/emailAddress=rafal.okuniewski@gmail.com
        Validity
            Not Before: May 12 09:56:10 2016 GMT
            Not After : May 12 09:56:10 2017 GMT
        Subject: C=PL, ST=mazowieckie, O=PW, CN=Pawe\xC5\x82 Chmielak, OU=WEiTI/emailAddress=P.Chmielak@stud.elka.pw.edu.pl
        Subject Public Key Info:
            Public Key Algorithm: rsaEncryption
                Public-Key: (2048 bit)
                Modulus:
                    00:ad:52:d7:65:87:36:1a:80:3f:52:5f:a5:88:9e:
                    af:16:84:3e:1e:65:0a:65:ab:09:9b:5f:37:dc:8c:
                    9a:1a:58:8d:2e:6b:85:61:51:d2:a0:8f:2a:80:d4:
                    fc:84:2b:95:fe:cc:3a:d9:7d:c1:a3:b9:93:66:04:
                    db:07:88:2a:82:20:e3:28:34:5d:0f:5a:92:dd:bd:
                    63:59:04:4e:66:19:18:a1:a0:16:ab:1d:a4:d4:70:
                    8a:4d:92:b0:10:3b:4f:81:85:e3:ed:89:d3:26:63:
                    7f:72:8b:1e:4b:f5:37:b0:4d:7a:1a:15:06:c9:9d:
                    58:04:92:27:22:ff:77:18:f5:4e:38:1d:4e:69:ca:
                    86:d2:a9:cd:cc:b7:fa:2c:a7:17:84:80:32:ac:f6:
                    16:0e:d0:93:2c:fe:c4:e2:df:e3:a9:1f:b9:49:ca:
                    7f:a5:67:37:16:bc:f8:ad:79:6e:dd:13:15:3e:ff:
                    f7:b6:0d:5f:0c:d5:14:64:11:bc:cf:0d:5e:1d:98:
                    fc:a1:4b:30:90:56:66:1c:1a:32:28:a0:f0:40:b3:
                    8e:08:d0:27:84:16:fc:8a:07:e1:e3:3b:d5:20:1e:
                    9d:7d:88:69:4a:a1:42:a3:ec:fa:49:fd:33:ba:0b:
                    81:c9:3c:da:3b:d4:7a:9e:c4:d1:83:37:93:b0:80:
                    c7:af
                Exponent: 65537 (0x10001)
        X509v3 extensions:
            X509v3 Basic Constraints: 
                CA:FALSE
            Netscape Comment: 
                Testowe CA
            X509v3 Subject Key Identifier: 
                FF:BA:67:4D:17:96:A0:F8:6C:30:55:A4:FC:E0:BB:CA:B9:6D:EF:73
            X509v3 Authority Key Identifier: 
                keyid:51:B1:37:D6:71:F7:F2:18:A9:7C:58:0C:AF:5E:04:90:08:94:B0:23
                DirName:/C=PL/ST=mazowieckie/L=Warszawa/O=PW/OU=WEiTI/CN=Rafa\xC5\x82 Okuniewski/emailAddress=rafal.okuniewski@gmail.com
                serial:E8:52:BE:60:86:0F:6E:1D

    Signature Algorithm: md5WithRSAEncryption
         b4:16:57:7e:8a:c6:25:48:b5:47:d6:b3:8d:34:a8:a9:8d:27:
         4e:21:5a:a5:d7:cc:b6:8d:62:08:5d:c2:f5:59:81:6c:73:16:
         2d:3c:bf:8d:fb:8a:69:bc:93:e5:e7:f2:b0:8b:4a:fb:56:7e:
         ce:98:ea:28:a1:42:78:1f:7c:6a:be:f9:e7:f1:ad:6c:28:4f:
         49:57:24:7d:78:2b:ae:ae:f6:a2:d7:84:77:58:0c:04:69:2f:
         66:7b:cb:ce:ae:2d:47:19:65:a0:56:7a:09:d2:36:c2:cd:9c:
         78:fe:ef:51:b2:37:fb:2f:8f:96:f0:42:8d:31:4a:59:09:7a:
         6b:45:1d:0f:14:8b:cf:14:61:5e:d5:4d:c1:bd:ce:40:ec:51:
         dd:2b:b4:1d:96:d2:0d:59:c8:30:b1:45:e6:40:4e:00:00:57:
         0a:19:35:10:31:b4:93:a4:41:f7:c4:35:b1:65:78:63:0f:25:
         ae:80:58:38:f4:86:a8:ac:d3:11:39:e2:cc:09:03:23:d7:ee:
         07:57:43:2a:ee:65:cd:35:cd:39:56:c4:47:50:d2:ae:c5:a1:
         23:81:c5:85:e7:8a:c8:71:66:f3:54:01:45:11:2e:56:78:e5:
         b8:cf:83:1f:9c:71:78:1e:36:8f:8c:08:f3:46:c0:f5:b9:d1:
         9e:c5:96:7b:e3:0d:ed:80:7b:dc:82:38:b6:53:08:c9:3c:32:
         e9:71:21:f5:63:d6:3c:12:86:56:28:e2:86:26:d9:12:4a:bf:
         fd:38:00:53:f5:2c:43:bf:dc:bd:88:a0:49:03:85:9d:ce:b9:
         88:28:55:45:3d:21:b9:ab:e3:79:0a:22:07:d7:86:83:5f:2a:
         53:cb:f3:fb:72:26:62:42:72:f3:60:00:64:ff:8b:81:53:46:
         e4:0c:90:cc:23:83:3f:5c:b3:05:7d:4c:b7:12:14:6e:0a:46:
         25:d0:9a:71:cc:82:9e:7e:f4:4d:ca:8f:b0:b3:12:d4:fc:64:
         4c:55:94:c8:1f:cc:28:77:1b:85:20:6f:9c:1e:89:6e:9e:50:
         c8:0c:26:59:62:11:1c:37:e7:a9:3e:e4:86:49:3a:67:e5:34:
         38:c7:e9:77:9b:ae:da:7f:99:8e:a8:9b:dc:74:dd:e1:18:e3:
         d2:14:cf:06:9f:34:6c:55:9b:b3:94:6e:e2:b0:0a:a4:83:5c:
         4c:b7:e7:c8:b7:e5:2a:21:35:68:d1:30:78:5a:0f:81:ab:06:
         e0:f4:cb:a7:ef:f4:97:7c:73:d1:49:60:c6:1e:f2:bb:82:84:
         a0:69:6d:8a:50:5c:dc:5b:f0:f0:31:a7:df:a9:4d:43:64:a4:
         35:f9:66:9c:fd:3f:f2:10
-----BEGIN CERTIFICATE-----
MIIFvTCCA6WgAwIBAgIBAjANBgkqhkiG9w0BAQQFADCBmjELMAkGA1UEBhMCUEwx
FDASBgNVBAgTC21hem93aWVja2llMREwDwYDVQQHEwhXYXJzemF3YTELMAkGA1UE
ChMCUFcxDjAMBgNVBAsTBVdFaVRJMRowGAYDVQQDFBFSYWZhxYIgT2t1bmlld3Nr
aTEpMCcGCSqGSIb3DQEJARYacmFmYWwub2t1bmlld3NraUBnbWFpbC5jb20wHhcN
MTYwNTEyMDk1NjEwWhcNMTcwNTEyMDk1NjEwWjCBiTELMAkGA1UEBhMCUEwxFDAS
BgNVBAgTC21hem93aWVja2llMQswCQYDVQQKEwJQVzEYMBYGA1UEAxQPUGF3ZcWC
IENobWllbGFrMQ4wDAYDVQQLEwVXRWlUSTEtMCsGCSqGSIb3DQEJARYeUC5DaG1p
ZWxha0BzdHVkLmVsa2EucHcuZWR1LnBsMIIBIjANBgkqhkiG9w0BAQEFAAOCAQ8A
MIIBCgKCAQEArVLXZYc2GoA/Ul+liJ6vFoQ+HmUKZasJm1833IyaGliNLmuFYVHS
oI8qgNT8hCuV/sw62X3Bo7mTZgTbB4gqgiDjKDRdD1qS3b1jWQROZhkYoaAWqx2k
1HCKTZKwEDtPgYXj7YnTJmN/coseS/U3sE16GhUGyZ1YBJInIv93GPVOOB1OacqG
0qnNzLf6LKcXhIAyrPYWDtCTLP7E4t/jqR+5Scp/pWc3Frz4rXlu3RMVPv/3tg1f
DNUUZBG8zw1eHZj8oUswkFZmHBoyKKDwQLOOCNAnhBb8igfh4zvVIB6dfYhpSqFC
o+z6Sf0zuguByTzaO9R6nsTRgzeTsIDHrwIDAQABo4IBGzCCARcwCQYDVR0TBAIw
ADAZBglghkgBhvhCAQ0EDBYKVGVzdG93ZSBDQTAdBgNVHQ4EFgQU/7pnTReWoPhs
MFWk/OC7yrlt73Mwgc8GA1UdIwSBxzCBxIAUUbE31nH38hipfFgMr14EkAiUsCOh
gaCkgZ0wgZoxCzAJBgNVBAYTAlBMMRQwEgYDVQQIEwttYXpvd2llY2tpZTERMA8G
A1UEBxMIV2Fyc3phd2ExCzAJBgNVBAoTAlBXMQ4wDAYDVQQLEwVXRWlUSTEaMBgG
A1UEAxQRUmFmYcWCIE9rdW5pZXdza2kxKTAnBgkqhkiG9w0BCQEWGnJhZmFsLm9r
dW5pZXdza2lAZ21haWwuY29tggkA6FK+YIYPbh0wDQYJKoZIhvcNAQEEBQADggIB
ALQWV36KxiVItUfWs400qKmNJ04hWqXXzLaNYghdwvVZgWxzFi08v437imm8k+Xn
8rCLSvtWfs6Y6iihQngffGq++efxrWwoT0lXJH14K66u9qLXhHdYDARpL2Z7y86u
LUcZZaBWegnSNsLNnHj+71GyN/svj5bwQo0xSlkJemtFHQ8Ui88UYV7VTcG9zkDs
Ud0rtB2W0g1ZyDCxReZATgAAVwoZNRAxtJOkQffENbFleGMPJa6AWDj0hqis0xE5
4swJAyPX7gdXQyruZc01zTlWxEdQ0q7FoSOBxYXnishxZvNUAUURLlZ45bjPgx+c
cXgeNo+MCPNGwPW50Z7FlnvjDe2Ae9yCOLZTCMk8MulxIfVj1jwShlYo4oYm2RJK
v/04AFP1LEO/3L2IoEkDhZ3OuYgoVUU9Ibmr43kKIgfXhoNfKlPL8/tyJmJCcvNg
AGT/i4FTRuQMkMwjgz9cswV9TLcSFG4KRiXQmnHMgp5+9E3Kj7CzEtT8ZExVlMgf
zCh3G4Ugb5weiW6eUMgMJlliERw356k+5IZJOmflNDjH6Xebrtp/mY6om9x03eEY
49IUzwafNGxVm7OUbuKwCqSDXEy358i35SohNWjRMHhaD4GrBuD0y6fv9Jd8c9FJ
YMYe8ruChKBpbYpQXNxb8PAxp9+pTUNkpDX5Zpz9P/IQ
-----END CERTIFICATE-----
