Certificate:
    Data:
        Version: 3 (0x2)
        Serial Number: 1 (0x1)
    Signature Algorithm: md5WithRSAEncryption
        Issuer: C=PL, ST=mazowieckie, L=Warszawa, O=PW, OU=WEiTI, CN=Rafa\xC5\x82 Okuniewski/emailAddress=rafal.okuniewski@gmail.com
        Validity
            Not Before: May 12 09:47:18 2016 GMT
            Not After : May 12 09:47:18 2017 GMT
        Subject: C=PL, ST=mazowieckie, O=PW, CN=Rafa\xC5\x82 Okuniewski, OU=WEiTI/emailAddress=rafal.okuniewski@gmail.com
        Subject Public Key Info:
            Public Key Algorithm: rsaEncryption
                Public-Key: (2048 bit)
                Modulus:
                    00:a7:8a:35:2d:ea:fe:34:38:c0:ed:c4:95:69:92:
                    60:f1:35:36:e5:93:1f:8f:8c:29:d2:da:77:1f:16:
                    ea:24:63:15:6e:fa:3c:3c:bb:4b:50:78:94:29:45:
                    64:2d:e6:99:7d:b9:86:37:9c:1f:1e:a3:75:79:43:
                    35:4f:62:fa:b3:43:af:a5:d9:f7:9e:bb:71:a8:cd:
                    a4:cf:cd:55:1d:0e:22:da:6d:dc:c3:85:27:75:95:
                    5a:ee:0e:82:94:51:aa:19:0e:b0:90:2a:54:8f:16:
                    23:c8:d4:e0:74:66:1d:e3:17:d5:be:ba:48:27:93:
                    c2:5c:de:27:50:35:d4:b5:52:72:d2:76:01:03:90:
                    aa:de:5c:ee:99:c7:63:8f:d1:f6:35:60:c0:7a:88:
                    90:f0:20:33:ac:bb:08:bc:5b:57:ad:5d:e0:71:47:
                    1d:ed:a6:bf:eb:86:fc:52:cc:20:60:a5:ef:b1:dc:
                    d3:24:ed:7c:a0:cf:3f:d2:c5:4b:b1:7d:ac:d1:2e:
                    91:45:54:70:36:99:6c:f1:b1:ca:6c:65:40:4c:13:
                    d1:ca:ed:29:e2:e4:fb:60:98:7e:f5:df:7a:0d:30:
                    86:b0:72:96:fa:b7:eb:b8:73:89:49:33:e6:56:be:
                    f9:32:dd:ce:d8:3e:25:57:97:03:5f:a1:6f:32:f6:
                    03:11
                Exponent: 65537 (0x10001)
        X509v3 extensions:
            X509v3 Basic Constraints: 
                CA:FALSE
            Netscape Comment: 
                Testowe CA
            X509v3 Subject Key Identifier: 
                57:27:50:4F:AC:A7:9E:F0:9F:D5:D9:A3:D0:48:C2:41:81:8D:23:53
            X509v3 Authority Key Identifier: 
                keyid:51:B1:37:D6:71:F7:F2:18:A9:7C:58:0C:AF:5E:04:90:08:94:B0:23
                DirName:/C=PL/ST=mazowieckie/L=Warszawa/O=PW/OU=WEiTI/CN=Rafa\xC5\x82 Okuniewski/emailAddress=rafal.okuniewski@gmail.com
                serial:E8:52:BE:60:86:0F:6E:1D

    Signature Algorithm: md5WithRSAEncryption
         18:78:7a:43:5d:af:f8:07:64:b4:52:60:30:d6:e1:31:ab:48:
         ed:ee:dc:fd:ea:b7:43:79:cc:ca:bb:1a:6b:45:d7:36:53:28:
         45:20:c9:1b:c0:49:63:e3:59:23:56:84:b5:2d:21:66:d8:5e:
         d5:89:3f:e0:43:2c:78:aa:d9:f8:3e:9e:e4:9c:32:9e:1a:0c:
         e9:ea:fd:84:3e:8a:f0:e8:78:41:b3:6b:f0:08:65:53:a1:af:
         ab:c1:1b:44:be:1c:b9:7d:85:5d:36:b7:eb:07:4f:ad:61:f2:
         b8:5c:b2:80:31:49:d3:e3:bf:53:39:15:93:ea:30:fa:83:de:
         b2:a1:7d:71:89:08:a6:17:3a:a8:ed:ad:23:6a:2f:2a:37:e1:
         25:f9:bc:02:7f:d9:24:c1:d3:1f:9b:45:87:a5:3f:b9:9b:fb:
         70:18:67:35:a0:d9:e2:f3:02:d2:77:1e:a1:b4:d3:be:9d:58:
         af:24:61:61:49:80:e3:e3:b4:ce:3b:bb:35:30:cd:4c:18:f0:
         2c:96:52:93:e8:fc:3e:49:f6:1a:b1:4f:f8:85:53:90:dc:ca:
         08:87:88:89:31:94:13:f0:7f:b6:65:ba:ff:e8:78:a0:6a:41:
         53:d7:59:a6:31:ed:ef:30:00:89:a1:ca:b8:7e:9e:c9:d9:bf:
         56:f5:5d:ae:c6:df:f1:f0:40:9d:a9:7a:21:09:e7:77:e7:11:
         49:0f:e1:36:19:57:3e:0a:27:c7:c8:a9:5d:f4:77:75:48:33:
         17:df:a7:60:0a:16:0a:ae:26:29:4b:eb:d4:c2:9b:c6:9b:f0:
         6e:0e:b6:2e:5a:21:15:86:2e:5e:f5:84:12:4c:71:c9:4d:41:
         b6:c1:56:2c:c5:1b:0d:77:20:f2:e4:95:40:8d:4e:ed:a9:6e:
         01:9a:db:03:7a:a7:20:7c:d9:2a:02:df:3c:15:49:bb:d1:ef:
         9c:af:5d:85:b1:de:97:b6:9f:3d:a9:16:64:fb:12:24:30:2d:
         98:48:f6:74:96:ff:f1:bd:82:40:73:4f:58:82:83:72:ef:19:
         36:2b:66:33:10:70:64:41:b5:7b:63:93:d4:69:52:65:b5:48:
         bf:b3:3c:5e:31:26:0e:f6:f4:3c:79:08:21:a0:f5:ce:4f:32:
         ce:40:45:c8:8e:6b:be:85:6c:90:46:a6:78:2c:63:2f:14:fd:
         5b:1c:7c:56:50:61:78:ef:d5:55:a6:2a:41:1d:7b:4e:47:ba:
         f5:e7:de:83:e5:64:02:e6:58:f1:31:0a:21:84:30:70:ab:43:
         dc:ff:f1:d3:e2:e1:2a:a1:23:22:d5:d7:ae:33:50:9c:7d:9e:
         43:06:f1:e4:c1:a6:a0:aa
-----BEGIN CERTIFICATE-----
MIIFuzCCA6OgAwIBAgIBATANBgkqhkiG9w0BAQQFADCBmjELMAkGA1UEBhMCUEwx
FDASBgNVBAgTC21hem93aWVja2llMREwDwYDVQQHEwhXYXJzemF3YTELMAkGA1UE
ChMCUFcxDjAMBgNVBAsTBVdFaVRJMRowGAYDVQQDFBFSYWZhxYIgT2t1bmlld3Nr
aTEpMCcGCSqGSIb3DQEJARYacmFmYWwub2t1bmlld3NraUBnbWFpbC5jb20wHhcN
MTYwNTEyMDk0NzE4WhcNMTcwNTEyMDk0NzE4WjCBhzELMAkGA1UEBhMCUEwxFDAS
BgNVBAgTC21hem93aWVja2llMQswCQYDVQQKEwJQVzEaMBgGA1UEAxQRUmFmYcWC
IE9rdW5pZXdza2kxDjAMBgNVBAsTBVdFaVRJMSkwJwYJKoZIhvcNAQkBFhpyYWZh
bC5va3VuaWV3c2tpQGdtYWlsLmNvbTCCASIwDQYJKoZIhvcNAQEBBQADggEPADCC
AQoCggEBAKeKNS3q/jQ4wO3ElWmSYPE1NuWTH4+MKdLadx8W6iRjFW76PDy7S1B4
lClFZC3mmX25hjecHx6jdXlDNU9i+rNDr6XZ9567cajNpM/NVR0OItpt3MOFJ3WV
Wu4OgpRRqhkOsJAqVI8WI8jU4HRmHeMX1b66SCeTwlzeJ1A11LVSctJ2AQOQqt5c
7pnHY4/R9jVgwHqIkPAgM6y7CLxbV61d4HFHHe2mv+uG/FLMIGCl77Hc0yTtfKDP
P9LFS7F9rNEukUVUcDaZbPGxymxlQEwT0crtKeLk+2CYfvXfeg0whrBylvq367hz
iUkz5la++TLdztg+JVeXA1+hbzL2AxECAwEAAaOCARswggEXMAkGA1UdEwQCMAAw
GQYJYIZIAYb4QgENBAwWClRlc3Rvd2UgQ0EwHQYDVR0OBBYEFFcnUE+sp57wn9XZ
o9BIwkGBjSNTMIHPBgNVHSMEgccwgcSAFFGxN9Zx9/IYqXxYDK9eBJAIlLAjoYGg
pIGdMIGaMQswCQYDVQQGEwJQTDEUMBIGA1UECBMLbWF6b3dpZWNraWUxETAPBgNV
BAcTCFdhcnN6YXdhMQswCQYDVQQKEwJQVzEOMAwGA1UECxMFV0VpVEkxGjAYBgNV
BAMUEVJhZmHFgiBPa3VuaWV3c2tpMSkwJwYJKoZIhvcNAQkBFhpyYWZhbC5va3Vu
aWV3c2tpQGdtYWlsLmNvbYIJAOhSvmCGD24dMA0GCSqGSIb3DQEBBAUAA4ICAQAY
eHpDXa/4B2S0UmAw1uExq0jt7tz96rdDeczKuxprRdc2UyhFIMkbwElj41kjVoS1
LSFm2F7ViT/gQyx4qtn4Pp7knDKeGgzp6v2EPorw6HhBs2vwCGVToa+rwRtEvhy5
fYVdNrfrB0+tYfK4XLKAMUnT479TORWT6jD6g96yoX1xiQimFzqo7a0jai8qN+El
+bwCf9kkwdMfm0WHpT+5m/twGGc1oNni8wLSdx6htNO+nVivJGFhSYDj47TOO7s1
MM1MGPAsllKT6Pw+SfYasU/4hVOQ3MoIh4iJMZQT8H+2Zbr/6HigakFT11mmMe3v
MACJocq4fp7J2b9W9V2uxt/x8ECdqXohCed35xFJD+E2GVc+CifHyKld9Hd1SDMX
36dgChYKriYpS+vUwpvGm/BuDrYuWiEVhi5e9YQSTHHJTUG2wVYsxRsNdyDy5JVA
jU7tqW4BmtsDeqcgfNkqAt88FUm70e+cr12Fsd6Xtp89qRZk+xIkMC2YSPZ0lv/x
vYJAc09YgoNy7xk2K2YzEHBkQbV7Y5PUaVJltUi/szxeMSYO9vQ8eQghoPXOTzLO
QEXIjmu+hWyQRqZ4LGMvFP1bHHxWUGF479VVpipBHXtOR7r1596D5WQC5ljxMQoh
hDBwq0Pc//HT4uEqoSMi1deuM1CcfZ5DBvHkwaagqg==
-----END CERTIFICATE-----

